target datalayout = "e-m:e-p270:32:32-p271:32:32-p272:64:64-i64:64-i128:128-f80:128-n8:16:32:64-S128"
target triple = "x86_64-pc-linux-gnu"

%"class.std::__cxx11::basic_string" = type { %"struct.std::__cxx11::basic_string<char>::_Alloc_hider", i64, %union.anon }
%"struct.std::__cxx11::basic_string<char>::_Alloc_hider" = type { ptr }
%union.anon = type { i64, [8 x i8] }
%struct.Node = type <{ %"class.std::__cxx11::basic_string", i64, i64, i32, i8, i8, i8, i8, ptr, %"class.std::vector", %"class.std::vector", i32, [4 x i8] }>
%"class.std::vector" = type { %"struct.std::_Vector_base" }
%"struct.std::_Vector_base" = type { %"struct.std::_Vector_base<Edge *, std::allocator<Edge *>>::_Vector_impl" }
%"struct.std::_Vector_base<Edge *, std::allocator<Edge *>>::_Vector_impl" = type { %"struct.std::_Vector_base<Edge *, std::allocator<Edge *>>::_Vector_impl_data" }
%"struct.std::_Vector_base<Edge *, std::allocator<Edge *>>::_Vector_impl_data" = type { ptr, ptr, ptr }
%"class.std::vector.3" = type { %"struct.std::_Vector_base.4" }
%"struct.std::_Vector_base.4" = type { %"struct.std::_Vector_base<Node *, std::allocator<Node *>>::_Vector_impl" }
%"struct.std::_Vector_base<Node *, std::allocator<Node *>>::_Vector_impl" = type { %"struct.std::_Vector_base<Node *, std::allocator<Node *>>::_Vector_impl_data" }
%"struct.std::_Vector_base<Node *, std::allocator<Node *>>::_Vector_impl_data" = type { ptr, ptr, ptr }
%"class.__gnu_cxx::__normal_iterator.9" = type { ptr }
%struct.Edge = type { ptr, ptr, %"class.std::vector.3", %"class.std::vector.3", %"class.std::vector.3", ptr, ptr, i32, i64, i64, i8, i8, i8, i8, i64, i32, i32, i32, i64 }

; Function Attrs: mustprogress nounwind uwtable
define linkonce_odr dso_local noundef nonnull align 8 dereferenceable(8) ptr @_ZNK9__gnu_cxx17__normal_iteratorIPKP4NodeSt6vectorIS2_SaIS2_EEE4baseEv(ptr noundef nonnull align 8 dereferenceable(8) %0) #1 comdat align 2 {
  %2 = alloca ptr, align 8
  store ptr %0, ptr %2, align 8, !tbaa !99
  %3 = load ptr, ptr %2, align 8
  %4 = getelementptr inbounds nuw %"class.__gnu_cxx::__normal_iterator.9", ptr %3, i32 0, i32 0
  ret ptr %4
}

; Function Attrs: mustprogress nounwind uwtable
define linkonce_odr dso_local void @_ZN9__gnu_cxx17__normal_iteratorIPKP4NodeSt6vectorIS2_SaIS2_EEEC2ERKS4_(ptr noundef nonnull align 8 dereferenceable(8) %0, ptr noundef nonnull align 8 dereferenceable(8) %1) unnamed_addr #1 comdat align 2 {
  %3 = alloca ptr, align 8
  %4 = alloca ptr, align 8
  store ptr %0, ptr %3, align 8, !tbaa !99
  store ptr %1, ptr %4, align 8, !tbaa !406
  %5 = load ptr, ptr %3, align 8
  %6 = getelementptr inbounds nuw %"class.__gnu_cxx::__normal_iterator.9", ptr %5, i32 0, i32 0
  %7 = load ptr, ptr %4, align 8, !tbaa !406
  %8 = load ptr, ptr %7, align 8, !tbaa !45
  store ptr %8, ptr %6, align 8, !tbaa !103
  ret void
}

; Function Attrs: mustprogress nounwind uwtable
define linkonce_odr dso_local noundef nonnull align 8 dereferenceable(8) ptr @_ZN9__gnu_cxx17__normal_iteratorIPKP4NodeSt6vectorIS2_SaIS2_EEEppEv(ptr noundef nonnull align 8 dereferenceable(8) %0) #1 comdat align 2 {
  %2 = alloca ptr, align 8
  store ptr %0, ptr %2, align 8, !tbaa !99
  %3 = load ptr, ptr %2, align 8
  %4 = getelementptr inbounds nuw %"class.__gnu_cxx::__normal_iterator.9", ptr %3, i32 0, i32 0
  %5 = load ptr, ptr %4, align 8, !tbaa !103
  %6 = getelementptr inbounds nuw ptr, ptr %5, i32 1
  store ptr %6, ptr %4, align 8, !tbaa !103
  ret ptr %3
}

; Function Attrs: mustprogress nounwind uwtable
define linkonce_odr dso_local noundef zeroext i1 @_ZNK4Edge13outputs_readyEv(ptr noundef nonnull align 8 dereferenceable(168) %0) #1 comdat align 2 {
  %2 = alloca ptr, align 8
  store ptr %0, ptr %2, align 8, !tbaa !55
  %3 = load ptr, ptr %2, align 8
  %4 = getelementptr inbounds nuw %struct.Edge, ptr %3, i32 0, i32 10
  %5 = load i8, ptr %4, align 8, !tbaa !76, !range !79, !noundef !80
  %6 = trunc i8 %5 to i1
  ret i1 %6
}

; Function Attrs: mustprogress nounwind uwtable
define linkonce_odr dso_local noundef ptr @_ZNK4Node7in_edgeEv(ptr noundef nonnull align 8 dereferenceable(116) %0) #1 comdat align 2 {
  %2 = alloca ptr, align 8
  store ptr %0, ptr %2, align 8, !tbaa !4
  %3 = load ptr, ptr %2, align 8
  %4 = getelementptr inbounds nuw %struct.Node, ptr %3, i32 0, i32 8
  %5 = load ptr, ptr %4, align 8, !tbaa !106
  ret ptr %5
}

; Function Attrs: mustprogress nounwind uwtable
define linkonce_odr dso_local noundef nonnull align 8 dereferenceable(8) ptr @_ZNK9__gnu_cxx17__normal_iteratorIPKP4NodeSt6vectorIS2_SaIS2_EEEdeEv(ptr noundef nonnull align 8 dereferenceable(8) %0) #1 comdat align 2 {
  %2 = alloca ptr, align 8
  store ptr %0, ptr %2, align 8, !tbaa !99
  %3 = load ptr, ptr %2, align 8
  %4 = getelementptr inbounds nuw %"class.__gnu_cxx::__normal_iterator.9", ptr %3, i32 0, i32 0
  %5 = load ptr, ptr %4, align 8, !tbaa !103
  ret ptr %5
}

; Function Attrs: inlinehint mustprogress nounwind uwtable
define linkonce_odr dso_local noundef zeroext i1 @_ZN9__gnu_cxxneIPKP4NodeSt6vectorIS2_SaIS2_EEEEbRKNS_17__normal_iteratorIT_T0_EESD_(ptr noundef nonnull align 8 dereferenceable(8) %0, ptr noundef nonnull align 8 dereferenceable(8) %1) #2 comdat {
  %3 = alloca ptr, align 8
  %4 = alloca ptr, align 8
  store ptr %0, ptr %3, align 8, !tbaa !99
  store ptr %1, ptr %4, align 8, !tbaa !99
  %5 = load ptr, ptr %3, align 8, !tbaa !99
  %6 = call noundef nonnull align 8 dereferenceable(8) ptr @_ZNK9__gnu_cxx17__normal_iteratorIPKP4NodeSt6vectorIS2_SaIS2_EEE4baseEv(ptr noundef nonnull align 8 dereferenceable(8) %5) #7
  %7 = load ptr, ptr %6, align 8, !tbaa !45
  %8 = load ptr, ptr %4, align 8, !tbaa !99
  %9 = call noundef nonnull align 8 dereferenceable(8) ptr @_ZNK9__gnu_cxx17__normal_iteratorIPKP4NodeSt6vectorIS2_SaIS2_EEE4baseEv(ptr noundef nonnull align 8 dereferenceable(8) %8) #7
  %10 = load ptr, ptr %9, align 8, !tbaa !45
  %11 = icmp ne ptr %7, %10
  ret i1 %11
}

; Function Attrs: mustprogress nounwind uwtable
define linkonce_odr dso_local ptr @_ZNKSt6vectorIP4NodeSaIS1_EE3endEv(ptr noundef nonnull align 8 dereferenceable(24) %0) #1 comdat align 2 {
  %2 = alloca %"class.__gnu_cxx::__normal_iterator.9", align 8
  %3 = alloca ptr, align 8
  store ptr %0, ptr %3, align 8, !tbaa !37
  %4 = load ptr, ptr %3, align 8
  %5 = getelementptr inbounds nuw %"struct.std::_Vector_base.4", ptr %4, i32 0, i32 0
  %6 = getelementptr inbounds nuw %"struct.std::_Vector_base<Node *, std::allocator<Node *>>::_Vector_impl_data", ptr %5, i32 0, i32 1
  call void @_ZN9__gnu_cxx17__normal_iteratorIPKP4NodeSt6vectorIS2_SaIS2_EEEC2ERKS4_(ptr noundef nonnull align 8 dereferenceable(8) %2, ptr noundef nonnull align 8 dereferenceable(8) %6) #7
  %7 = getelementptr inbounds nuw %"class.__gnu_cxx::__normal_iterator.9", ptr %2, i32 0, i32 0
  %8 = load ptr, ptr %7, align 8
  ret ptr %8
}

; Function Attrs: mustprogress nounwind uwtable
define linkonce_odr dso_local ptr @_ZNKSt6vectorIP4NodeSaIS1_EE5beginEv(ptr noundef nonnull align 8 dereferenceable(24) %0) #1 comdat align 2 {
  %2 = alloca %"class.__gnu_cxx::__normal_iterator.9", align 8
  %3 = alloca ptr, align 8
  store ptr %0, ptr %3, align 8, !tbaa !37
  %4 = load ptr, ptr %3, align 8
  %5 = getelementptr inbounds nuw %"struct.std::_Vector_base.4", ptr %4, i32 0, i32 0
  %6 = getelementptr inbounds nuw %"struct.std::_Vector_base<Node *, std::allocator<Node *>>::_Vector_impl_data", ptr %5, i32 0, i32 0
  call void @_ZN9__gnu_cxx17__normal_iteratorIPKP4NodeSt6vectorIS2_SaIS2_EEEC2ERKS4_(ptr noundef nonnull align 8 dereferenceable(8) %2, ptr noundef nonnull align 8 dereferenceable(8) %6) #7
  %7 = getelementptr inbounds nuw %"class.__gnu_cxx::__normal_iterator.9", ptr %2, i32 0, i32 0
  %8 = load ptr, ptr %7, align 8
  ret ptr %8
}

; Function Attrs: mustprogress uwtable
define dso_local noundef zeroext i1 @_ZNK4Edge14AllInputsReadyEv(ptr noundef nonnull align 8 dereferenceable(168) %0) #0 align 2 {
  %2 = alloca i1, align 1
  %3 = alloca ptr, align 8
  %4 = alloca %"class.__gnu_cxx::__normal_iterator.9", align 8
  %5 = alloca %"class.__gnu_cxx::__normal_iterator.9", align 8
  %6 = alloca i32, align 4
  store ptr %0, ptr %3, align 8, !tbaa !55
  %7 = load ptr, ptr %3, align 8
  call void @llvm.lifetime.start.p0(i64 8, ptr %4) #7
  %8 = getelementptr inbounds nuw %struct.Edge, ptr %7, i32 0, i32 2
  %9 = call ptr @_ZNKSt6vectorIP4NodeSaIS1_EE5beginEv(ptr noundef nonnull align 8 dereferenceable(24) %8) #7
  %10 = getelementptr inbounds nuw %"class.__gnu_cxx::__normal_iterator.9", ptr %4, i32 0, i32 0
  store ptr %9, ptr %10, align 8
  br label %11

11:                                               ; preds = %29, %1
  call void @llvm.lifetime.start.p0(i64 8, ptr %5) #7
  %12 = getelementptr inbounds nuw %struct.Edge, ptr %7, i32 0, i32 2
  %13 = call ptr @_ZNKSt6vectorIP4NodeSaIS1_EE3endEv(ptr noundef nonnull align 8 dereferenceable(24) %12) #7
  %14 = getelementptr inbounds nuw %"class.__gnu_cxx::__normal_iterator.9", ptr %5, i32 0, i32 0
  store ptr %13, ptr %14, align 8
  %15 = call noundef zeroext i1 @_ZN9__gnu_cxxneIPKP4NodeSt6vectorIS2_SaIS2_EEEEbRKNS_17__normal_iteratorIT_T0_EESD_(ptr noundef nonnull align 8 dereferenceable(8) %4, ptr noundef nonnull align 8 dereferenceable(8) %5) #7
  call void @llvm.lifetime.end.p0(i64 8, ptr %5) #7
  br i1 %15, label %17, label %16

16:                                               ; preds = %11
  store i32 2, ptr %6, align 4
  br label %31

17:                                               ; preds = %11
  %18 = call noundef nonnull align 8 dereferenceable(8) ptr @_ZNK9__gnu_cxx17__normal_iteratorIPKP4NodeSt6vectorIS2_SaIS2_EEEdeEv(ptr noundef nonnull align 8 dereferenceable(8) %4) #7
  %19 = load ptr, ptr %18, align 8, !tbaa !4
  %20 = call noundef ptr @_ZNK4Node7in_edgeEv(ptr noundef nonnull align 8 dereferenceable(116) %19)
  %21 = icmp ne ptr %20, null
  br i1 %21, label %22, label %28

22:                                               ; preds = %17
  %23 = call noundef nonnull align 8 dereferenceable(8) ptr @_ZNK9__gnu_cxx17__normal_iteratorIPKP4NodeSt6vectorIS2_SaIS2_EEEdeEv(ptr noundef nonnull align 8 dereferenceable(8) %4) #7
  %24 = load ptr, ptr %23, align 8, !tbaa !4
  %25 = call noundef ptr @_ZNK4Node7in_edgeEv(ptr noundef nonnull align 8 dereferenceable(116) %24)
  %26 = call noundef zeroext i1 @_ZNK4Edge13outputs_readyEv(ptr noundef nonnull align 8 dereferenceable(168) %25)
  br i1 %26, label %28, label %27

27:                                               ; preds = %22
  store i1 false, ptr %2, align 1
  store i32 1, ptr %6, align 4
  br label %31

28:                                               ; preds = %22, %17
  br label %29

29:                                               ; preds = %28
  %30 = call noundef nonnull align 8 dereferenceable(8) ptr @_ZN9__gnu_cxx17__normal_iteratorIPKP4NodeSt6vectorIS2_SaIS2_EEEppEv(ptr noundef nonnull align 8 dereferenceable(8) %4) #7
  br label %11, !llvm.loop !145

31:                                               ; preds = %27, %16
  call void @llvm.lifetime.end.p0(i64 8, ptr %4) #7
  %32 = load i32, ptr %6, align 4
  switch i32 %32, label %36 [
    i32 2, label %33
    i32 1, label %34
  ]

33:                                               ; preds = %31
  store i1 true, ptr %2, align 1
  br label %34

34:                                               ; preds = %33, %31
  %35 = load i1, ptr %2, align 1
  ret i1 %35

36:                                               ; preds = %31
  unreachable
}