; Function Attrs: mustprogress nofree norecurse nosync nounwind willreturn memory(read, inaccessiblemem: none) uwtable
define dso_local noundef zeroext i1 @_ZNK4Edge14AllInputsReadyEv(ptr noundef nonnull readonly align 8 captures(none) dereferenceable(168) %0) local_unnamed_addr #5 align 2 {
  %2 = getelementptr inbounds nuw i8, ptr %0, i64 16
  %3 = load ptr, ptr %2, align 8, !tbaa !34
  %4 = getelementptr inbounds nuw i8, ptr %0, i64 24
  %5 = load ptr, ptr %4, align 8, !tbaa !34
  %.not78 = icmp eq ptr %3, %5
  br i1 %.not78, label %._crit_edge, label %.lr.ph

.lr.ph:                                           ; preds = %1, %13
  %.sroa.03.09 = phi ptr [ %14, %13 ], [ %3, %1 ]
  %6 = load ptr, ptr %.sroa.03.09, align 8, !tbaa !35
  %7 = getelementptr inbounds nuw i8, ptr %6, i64 56
  %8 = load ptr, ptr %7, align 8, !tbaa !66
  %.not = icmp eq ptr %8, null
  br i1 %.not, label %13, label %9

9:                                                ; preds = %.lr.ph
  %10 = getelementptr inbounds nuw i8, ptr %8, i64 128
  %11 = load i8, ptr %10, align 8, !tbaa !89, !range !92, !noundef !93
  %12 = trunc nuw i8 %11 to i1
  br i1 %12, label %13, label %._crit_edge

13:                                               ; preds = %.lr.ph, %9
  %14 = getelementptr inbounds nuw i8, ptr %.sroa.03.09, i64 8
  %.not7 = icmp eq ptr %14, %5
  br i1 %.not7, label %._crit_edge, label %.lr.ph, !llvm.loop !141

._crit_edge:                                      ; preds = %13, %9, %1
  %.not7.lcssa = phi i1 [ true, %1 ], [ false, %9 ], [ true, %13 ]
  ret i1 %.not7.lcssa
}